; Function Attrs: mustprogress nounwind uwtable
define void @_ZN11TransTableS11ResetMemoryE13TTresetReason(ptr nocapture noundef nonnull align 8 dereferenceable(2396) %0, i32 %1) unnamed_addr #5 align 2 {
  tail call void @_ZN11TransTableS4WipeEv(ptr noundef nonnull align 8 dereferenceable(2396) %0)
  %3 = getelementptr inbounds nuw i8, ptr %0, i64 356
  store i32 170000, ptr %3, align 4
  %4 = getelementptr inbounds nuw i8, ptr %0, i64 352
  store i32 60000, ptr %4, align 8
  %5 = getelementptr inbounds nuw i8, ptr %0, i64 368
  store i64 7614512, ptr %5, align 8
  %6 = getelementptr inbounds nuw i8, ptr %0, i64 872
  %7 = load ptr, ptr %6, align 8
  %8 = load ptr, ptr %7, align 8
  %9 = getelementptr inbounds nuw i8, ptr %0, i64 1344
  store ptr %8, ptr %9, align 8
  %10 = getelementptr inbounds nuw i8, ptr %0, i64 880
  %11 = load ptr, ptr %10, align 8
  %12 = load ptr, ptr %11, align 8
  %13 = getelementptr inbounds nuw i8, ptr %0, i64 1336
  store ptr %12, ptr %13, align 8
  %14 = getelementptr inbounds nuw i8, ptr %0, i64 396
  %15 = getelementptr inbounds nuw i8, ptr %0, i64 1800
  store i32 0, ptr %15, align 8
  %16 = getelementptr inbounds nuw i8, ptr %0, i64 1804
  store i32 0, ptr %16, align 4
  %17 = getelementptr inbounds nuw i8, ptr %0, i64 408
  tail call void @llvm.memset.p0.i64(ptr noundef nonnull align 4 dereferenceable(9) %14, i8 0, i64 9, i1 false)
  store i32 -1, ptr %17, align 8
  %18 = getelementptr inbounds nuw i8, ptr %0, i64 888
  %19 = getelementptr inbounds nuw i8, ptr %0, i64 1352
  %20 = getelementptr inbounds nuw i8, ptr %0, i64 1808
  %21 = getelementptr inbounds nuw i8, ptr %0, i64 2032
  br label %.preheader.i

.preheader.i:                                     ; preds = %29, %2
  %indvars.iv16.i = phi i64 [ 1, %2 ], [ %indvars.iv.next17.i, %29 ]
  br label %22

22:                                               ; preds = %22, %.preheader.i
  %indvars.iv.i = phi i64 [ 0, %.preheader.i ], [ %indvars.iv.next.i, %22 ]
  %23 = getelementptr inbounds [14 x [4 x ptr]], ptr %18, i64 0, i64 %indvars.iv16.i, i64 %indvars.iv.i
  %24 = load ptr, ptr %23, align 8
  %25 = load ptr, ptr %24, align 8
  %26 = getelementptr inbounds [14 x [4 x ptr]], ptr %19, i64 0, i64 %indvars.iv16.i, i64 %indvars.iv.i
  store ptr %25, ptr %26, align 8
  %27 = getelementptr inbounds [14 x [4 x i32]], ptr %20, i64 0, i64 %indvars.iv16.i, i64 %indvars.iv.i
  store i32 0, ptr %27, align 4
  %28 = getelementptr inbounds [14 x [4 x i32]], ptr %21, i64 0, i64 %indvars.iv16.i, i64 %indvars.iv.i
  store i32 0, ptr %28, align 4
  %indvars.iv.next.i = add nuw nsw i64 %indvars.iv.i, 1
  %exitcond.not.i = icmp eq i64 %indvars.iv.next.i, 4
  br i1 %exitcond.not.i, label %29, label %22, !llvm.loop !22

29:                                               ; preds = %22
  %indvars.iv.next17.i = add nuw nsw i64 %indvars.iv16.i, 1
  %exitcond19.not.i = icmp eq i64 %indvars.iv.next17.i, 14
  br i1 %exitcond19.not.i, label %_ZN11TransTableS6InitTTEv.exit.preheader, label %.preheader.i, !llvm.loop !23

_ZN11TransTableS6InitTTEv.exit.preheader:         ; preds = %29
  %30 = getelementptr inbounds nuw i8, ptr %0, i64 424
  br label %.preheader

.preheader:                                       ; preds = %_ZN11TransTableS6InitTTEv.exit.preheader, %_ZN11TransTableS6InitTTEv.exit
  %indvars.iv22 = phi i64 [ 1, %_ZN11TransTableS6InitTTEv.exit.preheader ], [ %indvars.iv.next23, %_ZN11TransTableS6InitTTEv.exit ]
  br label %31

31:                                               ; preds = %.preheader, %31
  %indvars.iv = phi i64 [ 0, %.preheader ], [ %indvars.iv.next, %31 ]
  %32 = getelementptr inbounds [14 x [4 x ptr]], ptr %19, i64 0, i64 %indvars.iv22, i64 %indvars.iv
  %33 = load ptr, ptr %32, align 8
  %34 = getelementptr inbounds [14 x [4 x ptr]], ptr %30, i64 0, i64 %indvars.iv22, i64 %indvars.iv
  store ptr %33, ptr %34, align 8
  %35 = getelementptr inbounds nuw i8, ptr %33, i64 8
  store i64 0, ptr %35, align 8
  %36 = load ptr, ptr %32, align 8
  store ptr null, ptr %36, align 8
  %37 = load ptr, ptr %32, align 8
  %38 = getelementptr inbounds nuw i8, ptr %37, i64 16
  store ptr null, ptr %38, align 8
  %39 = load ptr, ptr %32, align 8
  %40 = getelementptr inbounds nuw i8, ptr %39, i64 24
  store ptr null, ptr %40, align 8
  %41 = getelementptr inbounds [14 x [4 x i32]], ptr %20, i64 0, i64 %indvars.iv22, i64 %indvars.iv
  store i32 1, ptr %41, align 4
  %indvars.iv.next = add nuw nsw i64 %indvars.iv, 1
  %exitcond.not = icmp eq i64 %indvars.iv.next, 4
  br i1 %exitcond.not, label %_ZN11TransTableS6InitTTEv.exit, label %31, !llvm.loop !29

_ZN11TransTableS6InitTTEv.exit:                   ; preds = %31
  %indvars.iv.next23 = add nuw nsw i64 %indvars.iv22, 1
  %exitcond25.not = icmp eq i64 %indvars.iv.next23, 14
  br i1 %exitcond25.not, label %42, label %.preheader, !llvm.loop !30

42:                                               ; preds = %_ZN11TransTableS6InitTTEv.exit
  ret void
}